; Function Attrs: mustprogress nounwind uwtable
define dso_local void @_ZN5clang14JSONNodeDumper17writeIncludeStackENS_11PresumedLocEb(ptr noundef nonnull align 8 dereferenceable(1312) %0, ptr nocapture noundef readonly byval(%"class.clang::PresumedLoc") align 8 %1, i1 noundef zeroext %2) local_unnamed_addr #0 align 2 {
  %4 = alloca %"class.clang::PresumedLoc", align 8
  %5 = alloca %"class.llvm::json::Value", align 8
  %6 = load ptr, ptr %1, align 8
  %7 = icmp eq ptr %6, null
  br i1 %7, label %15, label %8

8:                                                ; preds = %3
  %9 = getelementptr inbounds nuw i8, ptr %0, i64 1048
  tail call void @_ZN4llvm4json7OStream14attributeBeginENS_9StringRefE(ptr noundef nonnull align 8 dereferenceable(176) %9, ptr nonnull @.str.469, i64 12) #20
  tail call void @_ZN4llvm4json7OStream11objectBeginEv(ptr noundef nonnull align 8 dereferenceable(176) %9) #20
  br i1 %2, label %_ZN4llvm4json5ValueC2EPKc.exit, label %10

10:                                               ; preds = %8
  %11 = getelementptr inbounds nuw i8, ptr %0, i64 1224
  %12 = load ptr, ptr %11, align 8
  %13 = getelementptr inbounds nuw i8, ptr %1, i64 20
  %.sroa.0.0.copyload.i = load i32, ptr %13, align 4
  call void @_ZNK5clang13SourceManager14getPresumedLocENS_14SourceLocationEb(ptr dead_on_unwind nonnull writable sret(%"class.clang::PresumedLoc") align 8 %4, ptr noundef nonnull align 8 dereferenceable(696) %12, i32 %.sroa.0.0.copyload.i, i1 noundef zeroext true) #20
  call void @_ZN5clang14JSONNodeDumper17writeIncludeStackENS_11PresumedLocEb(ptr noundef nonnull align 8 dereferenceable(1312) %0, ptr noundef nonnull byval(%"class.clang::PresumedLoc") align 8 %4, i1 noundef zeroext false)
  br label %_ZN4llvm4json5ValueC2EPKc.exit

_ZN4llvm4json5ValueC2EPKc.exit:                   ; preds = %10, %8
  %14 = call noundef i64 @strlen(ptr noundef nonnull dereferenceable(1) %6) #20
  call void @_ZN4llvm4json5ValueC2ENS_9StringRefE(ptr noundef nonnull align 8 dereferenceable(40) %5, ptr nonnull %6, i64 %14)
  call void @_ZN4llvm4json7OStream14attributeBeginENS_9StringRefE(ptr noundef nonnull align 8 dereferenceable(176) %9, ptr nonnull @.str.470, i64 4) #20
  call void @_ZN4llvm4json7OStream5valueERKNS0_5ValueE(ptr noundef nonnull align 8 dereferenceable(176) %9, ptr noundef nonnull align 8 dereferenceable(40) %5) #20
  call void @_ZN4llvm4json7OStream12attributeEndEv(ptr noundef nonnull align 8 dereferenceable(176) %9) #20
  call void @_ZN4llvm4json5Value7destroyEv(ptr noundef nonnull align 8 dereferenceable(40) %5) #20
  call void @_ZN4llvm4json7OStream9objectEndEv(ptr noundef nonnull align 8 dereferenceable(176) %9) #20
  call void @_ZN4llvm4json7OStream12attributeEndEv(ptr noundef nonnull align 8 dereferenceable(176) %9) #20
  br label %15

15:                                               ; preds = %3, %_ZN4llvm4json5ValueC2EPKc.exit
  ret void
}